target datalayout = "e-m:e-p270:32:32-p271:32:32-p272:64:64-i64:64-i128:128-f80:128-n8:16:32:64-S128"
target triple = "x86_64-pc-linux-gnu"

%struct.MvcCubeStruct = type { ptr, i32, i32, [1 x i32] }

; Function Attrs: nounwind uwtable
define i32 @Mvc_CoverSupportVarBelongs(ptr noundef %0, i32 noundef %1) #0 {
  %3 = alloca ptr, align 8
  %4 = alloca i32, align 4
  %5 = alloca ptr, align 8
  %6 = alloca i32, align 4
  %7 = alloca i32, align 4
  %8 = alloca i32, align 4
  store ptr %0, ptr %3, align 8, !tbaa !3
  store i32 %1, ptr %4, align 4, !tbaa !10
  call void @llvm.lifetime.start.p0(i64 8, ptr %5) #3
  call void @llvm.lifetime.start.p0(i64 4, ptr %6) #3
  call void @llvm.lifetime.start.p0(i64 4, ptr %7) #3
  call void @llvm.lifetime.start.p0(i64 4, ptr %8) #3
  %9 = load ptr, ptr %3, align 8, !tbaa !3
  %10 = call ptr @Mvc_CubeAlloc(ptr noundef %9)
  store ptr %10, ptr %5, align 8, !tbaa !8
  %11 = load ptr, ptr %3, align 8, !tbaa !3
  %12 = load ptr, ptr %5, align 8, !tbaa !8
  call void @Mvc_CoverSupportAnd(ptr noundef %11, ptr noundef %12)
  %13 = load ptr, ptr %5, align 8, !tbaa !8
  %14 = getelementptr inbounds nuw %struct.MvcCubeStruct, ptr %13, i32 0, i32 3
  %15 = load i32, ptr %4, align 4, !tbaa !10
  %16 = mul nsw i32 2, %15
  %17 = ashr i32 %16, 5
  %18 = sext i32 %17 to i64
  %19 = getelementptr inbounds [1 x i32], ptr %14, i64 0, i64 %18
  %20 = load i32, ptr %19, align 4, !tbaa !10
  %21 = load i32, ptr %4, align 4, !tbaa !10
  %22 = mul nsw i32 2, %21
  %23 = and i32 %22, 31
  %24 = shl i32 1, %23
  %25 = and i32 %20, %24
  %26 = icmp ugt i32 %25, 0
  %27 = zext i1 %26 to i32
  store i32 %27, ptr %7, align 4, !tbaa !10
  %28 = load ptr, ptr %5, align 8, !tbaa !8
  %29 = getelementptr inbounds nuw %struct.MvcCubeStruct, ptr %28, i32 0, i32 3
  %30 = load i32, ptr %4, align 4, !tbaa !10
  %31 = mul nsw i32 2, %30
  %32 = add nsw i32 %31, 1
  %33 = ashr i32 %32, 5
  %34 = sext i32 %33 to i64
  %35 = getelementptr inbounds [1 x i32], ptr %29, i64 0, i64 %34
  %36 = load i32, ptr %35, align 4, !tbaa !10
  %37 = load i32, ptr %4, align 4, !tbaa !10
  %38 = mul nsw i32 2, %37
  %39 = add nsw i32 %38, 1
  %40 = and i32 %39, 31
  %41 = shl i32 1, %40
  %42 = and i32 %36, %41
  %43 = icmp ugt i32 %42, 0
  %44 = zext i1 %43 to i32
  store i32 %44, ptr %8, align 4, !tbaa !10
  %45 = load i32, ptr %7, align 4, !tbaa !10
  %46 = icmp ne i32 %45, 0
  br i1 %46, label %47, label %51

47:                                               ; preds = %2
  %48 = load i32, ptr %8, align 4, !tbaa !10
  %49 = icmp ne i32 %48, 0
  %50 = xor i1 %49, true
  br label %51

51:                                               ; preds = %47, %2
  %52 = phi i1 [ true, %2 ], [ %50, %47 ]
  %53 = zext i1 %52 to i32
  store i32 %53, ptr %6, align 4, !tbaa !10
  %54 = load ptr, ptr %3, align 8, !tbaa !3
  %55 = load ptr, ptr %5, align 8, !tbaa !8
  call void @Mvc_CubeFree(ptr noundef %54, ptr noundef %55)
  %56 = load i32, ptr %6, align 4, !tbaa !10
  call void @llvm.lifetime.end.p0(i64 4, ptr %8) #3
  call void @llvm.lifetime.end.p0(i64 4, ptr %7) #3
  call void @llvm.lifetime.end.p0(i64 4, ptr %6) #3
  call void @llvm.lifetime.end.p0(i64 8, ptr %5) #3
  ret i32 %56
}