; Function Attrs: nounwind uwtable
define range(i32 0, 2) i32 @Mvc_CoverSupportVarBelongs(ptr noundef %0, i32 noundef %1) local_unnamed_addr #1 {
  %3 = tail call ptr @Mvc_CubeAlloc(ptr noundef %0) #6
  tail call void @Mvc_CoverSupportAnd(ptr noundef %0, ptr noundef %3)
  %4 = getelementptr inbounds nuw i8, ptr %3, i64 16
  %5 = shl nsw i32 %1, 1
  %6 = ashr i32 %1, 4
  %7 = sext i32 %6 to i64
  %8 = getelementptr inbounds [1 x i32], ptr %4, i64 0, i64 %7
  %9 = load i32, ptr %8, align 4, !tbaa !3
  %10 = and i32 %5, 30
  %11 = shl nuw nsw i32 1, %10
  %12 = shl nuw i32 2, %10
  %13 = freeze i32 %12
  %14 = or i32 %13, %11
  %15 = and i32 %9, %14
  %16 = icmp ne i32 %15, %14
  %17 = zext i1 %16 to i32
  tail call void @Mvc_CubeFree(ptr noundef %0, ptr noundef %3) #6
  ret i32 %17
}